; Function Attrs: mustprogress uwtable
define hidden void @_Z23collect_uninterp_constsP4exprR13obj_hashtableI3appE(ptr noundef %0, ptr noundef nonnull align 8 dereferenceable(20) %1) local_unnamed_addr #3 personality ptr @__gxx_personality_v0 {
  %3 = alloca %class.obj_mark, align 8
  %4 = alloca %"struct.collect_uninterp_consts_ns::proc", align 8
  call void @llvm.lifetime.start.p0(i64 8, ptr nonnull %4) #14
  store ptr %1, ptr %4, align 8, !tbaa !6
  call void @llvm.lifetime.start.p0(i64 24, ptr nonnull %3) #14
  %5 = getelementptr inbounds nuw i8, ptr %3, i64 8
  call void @llvm.memset.p0.i64(ptr noundef nonnull align 8 dereferenceable(16) %5, i8 0, i64 16, i1 false)
  invoke void @_Z18for_each_expr_coreIN26collect_uninterp_consts_ns4procE8obj_markI4expr10bit_vector14default_t2uintIS3_EELb0ELb0EEvRT_RT0_PS3_(ptr noundef nonnull align 8 dereferenceable(8) %4, ptr noundef nonnull align 8 dereferenceable(24) %3, ptr noundef %0)
          to label %6 unwind label %14

6:                                                ; preds = %2
  %7 = getelementptr inbounds nuw i8, ptr %3, i64 16
  %8 = load ptr, ptr %7, align 8, !tbaa !45
  %9 = icmp eq ptr %8, null
  br i1 %9, label %_Z13for_each_exprIN26collect_uninterp_consts_ns4procEEvRT_P4expr.exit, label %10

10:                                               ; preds = %6
  invoke void @_ZN6memory10deallocateEPv(ptr noundef nonnull %8)
          to label %_Z13for_each_exprIN26collect_uninterp_consts_ns4procEEvRT_P4expr.exit unwind label %11

11:                                               ; preds = %10
  %12 = landingpad { ptr, i32 }
          catch ptr null
  %13 = extractvalue { ptr, i32 } %12, 0
  call void @__clang_call_terminate(ptr %13) #15
  unreachable

14:                                               ; preds = %2
  %15 = landingpad { ptr, i32 }
          cleanup
  call void @_ZN8obj_markI4expr10bit_vector14default_t2uintIS0_EED2Ev(ptr noundef nonnull align 8 dereferenceable(24) %3) #14
  call void @llvm.lifetime.end.p0(i64 24, ptr nonnull %3) #14
  resume { ptr, i32 } %15

_Z13for_each_exprIN26collect_uninterp_consts_ns4procEEvRT_P4expr.exit: ; preds = %6, %10
  call void @llvm.lifetime.end.p0(i64 24, ptr nonnull %3) #14
  call void @llvm.lifetime.end.p0(i64 8, ptr nonnull %4) #14
  ret void
}